target datalayout = "e-m:e-p270:32:32-p271:32:32-p272:64:64-i64:64-i128:128-f80:128-n8:16:32:64-S128"
target triple = "x86_64-pc-linux-gnu"

%struct.Dau_Dsd_t_ = type { i32, i32, i32, i32, i32, i32, i32, i32, ptr, [32 x [8 x i8]], [32 x [32 x i8]], [2000 x i8] }

@Dau_DsdComputeMatches.pMatches = internal global [2000 x i32] zeroinitializer, align 16

; Function Attrs: nounwind uwtable
define ptr @Dau_DsdComputeMatches(ptr noundef %0) #0 {
  %2 = alloca ptr, align 8
  %3 = alloca [12 x i32], align 16
  %4 = alloca i32, align 4
  %5 = alloca i32, align 4
  store ptr %0, ptr %2, align 8, !tbaa !3
  call void @llvm.lifetime.start.p0(i64 48, ptr %3) #9
  call void @llvm.lifetime.start.p0(i64 4, ptr %4) #9
  call void @llvm.lifetime.start.p0(i64 4, ptr %5) #9
  store i32 0, ptr %5, align 4, !tbaa !8
  store i32 0, ptr %4, align 4, !tbaa !8
  br label %6

6:                                                ; preds = %97, %1
  %7 = load ptr, ptr %2, align 8, !tbaa !3
  %8 = load i32, ptr %4, align 4, !tbaa !8
  %9 = sext i32 %8 to i64
  %10 = getelementptr inbounds i8, ptr %7, i64 %9
  %11 = load i8, ptr %10, align 1, !tbaa !10
  %12 = icmp ne i8 %11, 0
  br i1 %12, label %13, label %100

13:                                               ; preds = %6
  %14 = load i32, ptr %4, align 4, !tbaa !8
  %15 = sext i32 %14 to i64
  %16 = getelementptr inbounds [2000 x i32], ptr @Dau_DsdComputeMatches.pMatches, i64 0, i64 %15
  store i32 0, ptr %16, align 4, !tbaa !8
  %17 = load ptr, ptr %2, align 8, !tbaa !3
  %18 = load i32, ptr %4, align 4, !tbaa !8
  %19 = sext i32 %18 to i64
  %20 = getelementptr inbounds i8, ptr %17, i64 %19
  %21 = load i8, ptr %20, align 1, !tbaa !10
  %22 = sext i8 %21 to i32
  %23 = icmp eq i32 %22, 40
  br i1 %23, label %48, label %24

24:                                               ; preds = %13
  %25 = load ptr, ptr %2, align 8, !tbaa !3
  %26 = load i32, ptr %4, align 4, !tbaa !8
  %27 = sext i32 %26 to i64
  %28 = getelementptr inbounds i8, ptr %25, i64 %27
  %29 = load i8, ptr %28, align 1, !tbaa !10
  %30 = sext i8 %29 to i32
  %31 = icmp eq i32 %30, 91
  br i1 %31, label %48, label %32

32:                                               ; preds = %24
  %33 = load ptr, ptr %2, align 8, !tbaa !3
  %34 = load i32, ptr %4, align 4, !tbaa !8
  %35 = sext i32 %34 to i64
  %36 = getelementptr inbounds i8, ptr %33, i64 %35
  %37 = load i8, ptr %36, align 1, !tbaa !10
  %38 = sext i8 %37 to i32
  %39 = icmp eq i32 %38, 60
  br i1 %39, label %48, label %40

40:                                               ; preds = %32
  %41 = load ptr, ptr %2, align 8, !tbaa !3
  %42 = load i32, ptr %4, align 4, !tbaa !8
  %43 = sext i32 %42 to i64
  %44 = getelementptr inbounds i8, ptr %41, i64 %43
  %45 = load i8, ptr %44, align 1, !tbaa !10
  %46 = sext i8 %45 to i32
  %47 = icmp eq i32 %46, 123
  br i1 %47, label %48, label %54

48:                                               ; preds = %40, %32, %24, %13
  %49 = load i32, ptr %4, align 4, !tbaa !8
  %50 = load i32, ptr %5, align 4, !tbaa !8
  %51 = add nsw i32 %50, 1
  store i32 %51, ptr %5, align 4, !tbaa !8
  %52 = sext i32 %50 to i64
  %53 = getelementptr inbounds [12 x i32], ptr %3, i64 0, i64 %52
  store i32 %49, ptr %53, align 4, !tbaa !8
  br label %96

54:                                               ; preds = %40
  %55 = load ptr, ptr %2, align 8, !tbaa !3
  %56 = load i32, ptr %4, align 4, !tbaa !8
  %57 = sext i32 %56 to i64
  %58 = getelementptr inbounds i8, ptr %55, i64 %57
  %59 = load i8, ptr %58, align 1, !tbaa !10
  %60 = sext i8 %59 to i32
  %61 = icmp eq i32 %60, 41
  br i1 %61, label %86, label %62

62:                                               ; preds = %54
  %63 = load ptr, ptr %2, align 8, !tbaa !3
  %64 = load i32, ptr %4, align 4, !tbaa !8
  %65 = sext i32 %64 to i64
  %66 = getelementptr inbounds i8, ptr %63, i64 %65
  %67 = load i8, ptr %66, align 1, !tbaa !10
  %68 = sext i8 %67 to i32
  %69 = icmp eq i32 %68, 93
  br i1 %69, label %86, label %70

70:                                               ; preds = %62
  %71 = load ptr, ptr %2, align 8, !tbaa !3
  %72 = load i32, ptr %4, align 4, !tbaa !8
  %73 = sext i32 %72 to i64
  %74 = getelementptr inbounds i8, ptr %71, i64 %73
  %75 = load i8, ptr %74, align 1, !tbaa !10
  %76 = sext i8 %75 to i32
  %77 = icmp eq i32 %76, 62
  br i1 %77, label %86, label %78

78:                                               ; preds = %70
  %79 = load ptr, ptr %2, align 8, !tbaa !3
  %80 = load i32, ptr %4, align 4, !tbaa !8
  %81 = sext i32 %80 to i64
  %82 = getelementptr inbounds i8, ptr %79, i64 %81
  %83 = load i8, ptr %82, align 1, !tbaa !10
  %84 = sext i8 %83 to i32
  %85 = icmp eq i32 %84, 125
  br i1 %85, label %86, label %95

86:                                               ; preds = %78, %70, %62, %54
  %87 = load i32, ptr %4, align 4, !tbaa !8
  %88 = load i32, ptr %5, align 4, !tbaa !8
  %89 = add nsw i32 %88, -1
  store i32 %89, ptr %5, align 4, !tbaa !8
  %90 = sext i32 %89 to i64
  %91 = getelementptr inbounds [12 x i32], ptr %3, i64 0, i64 %90
  %92 = load i32, ptr %91, align 4, !tbaa !8
  %93 = sext i32 %92 to i64
  %94 = getelementptr inbounds [2000 x i32], ptr @Dau_DsdComputeMatches.pMatches, i64 0, i64 %93
  store i32 %87, ptr %94, align 4, !tbaa !8
  br label %95

95:                                               ; preds = %86, %78
  br label %96

96:                                               ; preds = %95, %48
  br label %97

97:                                               ; preds = %96
  %98 = load i32, ptr %4, align 4, !tbaa !8
  %99 = add nsw i32 %98, 1
  store i32 %99, ptr %4, align 4, !tbaa !8
  br label %6, !llvm.loop !11

100:                                              ; preds = %6
  call void @llvm.lifetime.end.p0(i64 4, ptr %5) #9
  call void @llvm.lifetime.end.p0(i64 4, ptr %4) #9
  call void @llvm.lifetime.end.p0(i64 48, ptr %3) #9
  ret ptr @Dau_DsdComputeMatches.pMatches
}

; Function Attrs: inlinehint nounwind uwtable
define internal i32 @Abc_TtIsConst1(ptr noundef %0, i32 noundef %1) #2 {
  %3 = alloca i32, align 4
  %4 = alloca ptr, align 8
  %5 = alloca i32, align 4
  %6 = alloca i32, align 4
  %7 = alloca i32, align 4
  store ptr %0, ptr %4, align 8, !tbaa !35
  store i32 %1, ptr %5, align 4, !tbaa !8
  call void @llvm.lifetime.start.p0(i64 4, ptr %6) #9
  store i32 0, ptr %6, align 4, !tbaa !8
  br label %8

8:                                                ; preds = %22, %2
  %9 = load i32, ptr %6, align 4, !tbaa !8
  %10 = load i32, ptr %5, align 4, !tbaa !8
  %11 = icmp slt i32 %9, %10
  br i1 %11, label %12, label %25

12:                                               ; preds = %8
  %13 = load ptr, ptr %4, align 8, !tbaa !35
  %14 = load i32, ptr %6, align 4, !tbaa !8
  %15 = sext i32 %14 to i64
  %16 = getelementptr inbounds i64, ptr %13, i64 %15
  %17 = load i64, ptr %16, align 8, !tbaa !33
  %18 = xor i64 %17, -1
  %19 = icmp ne i64 %18, 0
  br i1 %19, label %20, label %21

20:                                               ; preds = %12
  store i32 0, ptr %3, align 4
  store i32 1, ptr %7, align 4
  br label %26

21:                                               ; preds = %12
  br label %22

22:                                               ; preds = %21
  %23 = load i32, ptr %6, align 4, !tbaa !8
  %24 = add nsw i32 %23, 1
  store i32 %24, ptr %6, align 4, !tbaa !8
  br label %8, !llvm.loop !52

25:                                               ; preds = %8
  store i32 1, ptr %3, align 4
  store i32 1, ptr %7, align 4
  br label %26

26:                                               ; preds = %25, %20
  call void @llvm.lifetime.end.p0(i64 4, ptr %6) #9
  %27 = load i32, ptr %3, align 4
  ret i32 %27
}

; Function Attrs: inlinehint nounwind uwtable
define internal i32 @Abc_TtIsConst0(ptr noundef %0, i32 noundef %1) #2 {
  %3 = alloca i32, align 4
  %4 = alloca ptr, align 8
  %5 = alloca i32, align 4
  %6 = alloca i32, align 4
  %7 = alloca i32, align 4
  store ptr %0, ptr %4, align 8, !tbaa !35
  store i32 %1, ptr %5, align 4, !tbaa !8
  call void @llvm.lifetime.start.p0(i64 4, ptr %6) #9
  store i32 0, ptr %6, align 4, !tbaa !8
  br label %8

8:                                                ; preds = %21, %2
  %9 = load i32, ptr %6, align 4, !tbaa !8
  %10 = load i32, ptr %5, align 4, !tbaa !8
  %11 = icmp slt i32 %9, %10
  br i1 %11, label %12, label %24

12:                                               ; preds = %8
  %13 = load ptr, ptr %4, align 8, !tbaa !35
  %14 = load i32, ptr %6, align 4, !tbaa !8
  %15 = sext i32 %14 to i64
  %16 = getelementptr inbounds i64, ptr %13, i64 %15
  %17 = load i64, ptr %16, align 8, !tbaa !33
  %18 = icmp ne i64 %17, 0
  br i1 %18, label %19, label %20

19:                                               ; preds = %12
  store i32 0, ptr %3, align 4
  store i32 1, ptr %7, align 4
  br label %25

20:                                               ; preds = %12
  br label %21

21:                                               ; preds = %20
  %22 = load i32, ptr %6, align 4, !tbaa !8
  %23 = add nsw i32 %22, 1
  store i32 %23, ptr %6, align 4, !tbaa !8
  br label %8, !llvm.loop !51

24:                                               ; preds = %8
  store i32 1, ptr %3, align 4
  store i32 1, ptr %7, align 4
  br label %25

25:                                               ; preds = %24, %19
  call void @llvm.lifetime.end.p0(i64 4, ptr %6) #9
  %26 = load i32, ptr %3, align 4
  ret i32 %26
}

; Function Attrs: inlinehint nounwind uwtable
define internal i32 @Abc_TtWordNum(i32 noundef %0) #2 {
  %2 = alloca i32, align 4
  store i32 %0, ptr %2, align 4, !tbaa !8
  %3 = load i32, ptr %2, align 4, !tbaa !8
  %4 = icmp sle i32 %3, 6
  br i1 %4, label %5, label %6

5:                                                ; preds = %1
  br label %10

6:                                                ; preds = %1
  %7 = load i32, ptr %2, align 4, !tbaa !8
  %8 = sub nsw i32 %7, 6
  %9 = shl i32 1, %8
  br label %10

10:                                               ; preds = %6, %5
  %11 = phi i32 [ 1, %5 ], [ %9, %6 ]
  ret i32 %11
}

; Function Attrs: nounwind uwtable
define i32 @Dau_DsdDecomposeLevel(ptr noundef %0, i32 noundef %1, i32 noundef %2, i32 noundef %3, ptr noundef %4, ptr noundef %5) #0 {
  %7 = alloca i32, align 4
  %8 = alloca ptr, align 8
  %9 = alloca i32, align 4
  %10 = alloca i32, align 4
  %11 = alloca i32, align 4
  %12 = alloca ptr, align 8
  %13 = alloca ptr, align 8
  %14 = alloca %struct.Dau_Dsd_t_, align 8
  %15 = alloca ptr, align 8
  %16 = alloca i32, align 4
  %17 = alloca i32, align 4
  store ptr %0, ptr %8, align 8, !tbaa !35
  store i32 %1, ptr %9, align 4, !tbaa !8
  store i32 %2, ptr %10, align 4, !tbaa !8
  store i32 %3, ptr %11, align 4, !tbaa !8
  store ptr %4, ptr %12, align 8, !tbaa !3
  store ptr %5, ptr %13, align 8, !tbaa !14
  call void @llvm.lifetime.start.p0(i64 3320, ptr %14) #9
  call void @llvm.lifetime.start.p0(i64 8, ptr %15) #9
  store ptr %14, ptr %15, align 8, !tbaa !80
  %18 = load i32, ptr %10, align 4, !tbaa !8
  %19 = load ptr, ptr %15, align 8, !tbaa !80
  %20 = getelementptr inbounds nuw %struct.Dau_Dsd_t_, ptr %19, i32 0, i32 6
  store i32 %18, ptr %20, align 8, !tbaa !82
  %21 = load i32, ptr %11, align 4, !tbaa !8
  %22 = load ptr, ptr %15, align 8, !tbaa !80
  %23 = getelementptr inbounds nuw %struct.Dau_Dsd_t_, ptr %22, i32 0, i32 7
  store i32 %21, ptr %23, align 4, !tbaa !84
  %24 = load ptr, ptr %13, align 8, !tbaa !14
  %25 = load ptr, ptr %15, align 8, !tbaa !80
  %26 = getelementptr inbounds nuw %struct.Dau_Dsd_t_, ptr %25, i32 0, i32 8
  store ptr %24, ptr %26, align 8, !tbaa !85
  %27 = load ptr, ptr %15, align 8, !tbaa !80
  %28 = getelementptr inbounds nuw %struct.Dau_Dsd_t_, ptr %27, i32 0, i32 3
  store i32 0, ptr %28, align 4, !tbaa !86
  %29 = load ptr, ptr %8, align 8, !tbaa !35
  %30 = getelementptr inbounds i64, ptr %29, i64 0
  %31 = load i64, ptr %30, align 8, !tbaa !33
  %32 = and i64 %31, 1
  %33 = icmp eq i64 %32, 0
  br i1 %33, label %34, label %49

34:                                               ; preds = %6
  %35 = load ptr, ptr %8, align 8, !tbaa !35
  %36 = load i32, ptr %9, align 4, !tbaa !8
  %37 = call i32 @Abc_TtWordNum(i32 noundef %36)
  %38 = call i32 @Abc_TtIsConst0(ptr noundef %35, i32 noundef %37)
  %39 = icmp ne i32 %38, 0
  br i1 %39, label %40, label %49

40:                                               ; preds = %34
  %41 = load ptr, ptr %12, align 8, !tbaa !3
  %42 = icmp ne ptr %41, null
  br i1 %42, label %43, label %48

43:                                               ; preds = %40
  %44 = load ptr, ptr %12, align 8, !tbaa !3
  %45 = getelementptr inbounds i8, ptr %44, i64 0
  store i8 48, ptr %45, align 1, !tbaa !10
  %46 = load ptr, ptr %12, align 8, !tbaa !3
  %47 = getelementptr inbounds i8, ptr %46, i64 1
  store i8 0, ptr %47, align 1, !tbaa !10
  br label %48

48:                                               ; preds = %43, %40
  br label %102

49:                                               ; preds = %34, %6
  %50 = load ptr, ptr %8, align 8, !tbaa !35
  %51 = getelementptr inbounds i64, ptr %50, i64 0
  %52 = load i64, ptr %51, align 8, !tbaa !33
  %53 = and i64 %52, 1
  %54 = icmp ne i64 %53, 0
  br i1 %54, label %55, label %70

55:                                               ; preds = %49
  %56 = load ptr, ptr %8, align 8, !tbaa !35
  %57 = load i32, ptr %9, align 4, !tbaa !8
  %58 = call i32 @Abc_TtWordNum(i32 noundef %57)
  %59 = call i32 @Abc_TtIsConst1(ptr noundef %56, i32 noundef %58)
  %60 = icmp ne i32 %59, 0
  br i1 %60, label %61, label %70

61:                                               ; preds = %55
  %62 = load ptr, ptr %12, align 8, !tbaa !3
  %63 = icmp ne ptr %62, null
  br i1 %63, label %64, label %69

64:                                               ; preds = %61
  %65 = load ptr, ptr %12, align 8, !tbaa !3
  %66 = getelementptr inbounds i8, ptr %65, i64 0
  store i8 49, ptr %66, align 1, !tbaa !10
  %67 = load ptr, ptr %12, align 8, !tbaa !3
  %68 = getelementptr inbounds i8, ptr %67, i64 1
  store i8 0, ptr %68, align 1, !tbaa !10
  br label %69

69:                                               ; preds = %64, %61
  br label %101

70:                                               ; preds = %55, %49
  call void @llvm.lifetime.start.p0(i64 4, ptr %16) #9
  %71 = load ptr, ptr %15, align 8, !tbaa !80
  %72 = load ptr, ptr %8, align 8, !tbaa !35
  %73 = load i32, ptr %9, align 4, !tbaa !8
  %74 = call i32 @Dau_DsdDecomposeInt(ptr noundef %71, ptr noundef %72, i32 noundef %73)
  store i32 %74, ptr %16, align 4, !tbaa !8
  %75 = load ptr, ptr %15, align 8, !tbaa !80
  %76 = getelementptr inbounds nuw %struct.Dau_Dsd_t_, ptr %75, i32 0, i32 11
  %77 = getelementptr inbounds [2000 x i8], ptr %76, i64 0, i64 0
  %78 = load ptr, ptr %15, align 8, !tbaa !80
  %79 = getelementptr inbounds nuw %struct.Dau_Dsd_t_, ptr %78, i32 0, i32 11
  %80 = getelementptr inbounds [2000 x i8], ptr %79, i64 0, i64 0
  %81 = call ptr @Dau_DsdComputeMatches(ptr noundef %80)
  call void @Dau_DsdRemoveBraces(ptr noundef %77, ptr noundef %81)
  %82 = load ptr, ptr %12, align 8, !tbaa !3
  %83 = icmp ne ptr %82, null
  br i1 %83, label %84, label %90

84:                                               ; preds = %70
  %85 = load ptr, ptr %12, align 8, !tbaa !3
  %86 = load ptr, ptr %15, align 8, !tbaa !80
  %87 = getelementptr inbounds nuw %struct.Dau_Dsd_t_, ptr %86, i32 0, i32 11
  %88 = getelementptr inbounds [2000 x i8], ptr %87, i64 0, i64 0
  %89 = call ptr @strcpy(ptr noundef %85, ptr noundef %88) #9
  br label %90

90:                                               ; preds = %84, %70
  %91 = load i32, ptr %10, align 4, !tbaa !8
  %92 = icmp ne i32 %91, 0
  br i1 %92, label %93, label %97

93:                                               ; preds = %90
  %94 = load i32, ptr %16, align 4, !tbaa !8
  %95 = icmp eq i32 %94, 2
  br i1 %95, label %96, label %97

96:                                               ; preds = %93
  store i32 -1, ptr %7, align 4
  store i32 1, ptr %17, align 4
  br label %98

97:                                               ; preds = %93, %90
  store i32 0, ptr %17, align 4
  br label %98

98:                                               ; preds = %97, %96
  call void @llvm.lifetime.end.p0(i64 4, ptr %16) #9
  %99 = load i32, ptr %17, align 4
  switch i32 %99, label %106 [
    i32 0, label %100
  ]

100:                                              ; preds = %98
  br label %101

101:                                              ; preds = %100, %69
  br label %102

102:                                              ; preds = %101, %48
  %103 = load ptr, ptr %15, align 8, !tbaa !80
  %104 = getelementptr inbounds nuw %struct.Dau_Dsd_t_, ptr %103, i32 0, i32 3
  %105 = load i32, ptr %104, align 4, !tbaa !86
  store i32 %105, ptr %7, align 4
  store i32 1, ptr %17, align 4
  br label %106

106:                                              ; preds = %102, %98
  call void @llvm.lifetime.end.p0(i64 8, ptr %15) #9
  call void @llvm.lifetime.end.p0(i64 3320, ptr %14) #9
  %107 = load i32, ptr %7, align 4
  ret i32 %107
}