; Function Attrs: nounwind uwtable
define i32 @Dau_DsdDecomposeLevel(ptr noundef %0, i32 noundef %1, i32 noundef %2, i32 noundef %3, ptr noundef %4, ptr noundef %5) local_unnamed_addr #3 {
  %7 = alloca [12 x i32], align 16
  %8 = alloca %struct.Dau_Dsd_t_, align 8
  call void @llvm.lifetime.start.p0(i64 3320, ptr nonnull %8) #29
  %9 = getelementptr inbounds nuw i8, ptr %8, i64 24
  store i32 %2, ptr %9, align 8, !tbaa !80
  %10 = getelementptr inbounds nuw i8, ptr %8, i64 28
  store i32 %3, ptr %10, align 4, !tbaa !83
  %11 = getelementptr inbounds nuw i8, ptr %8, i64 32
  store ptr %5, ptr %11, align 8, !tbaa !84
  %12 = getelementptr inbounds nuw i8, ptr %8, i64 12
  store i32 0, ptr %12, align 4, !tbaa !85
  %13 = load i64, ptr %0, align 8, !tbaa !29
  %14 = and i64 %13, 1
  %15 = icmp eq i64 %14, 0
  %16 = icmp slt i32 %1, 7
  %17 = add nsw i32 %1, -6
  %18 = shl nuw i32 1, %17
  %19 = select i1 %16, i32 1, i32 %18
  %20 = icmp sgt i32 %19, 0
  br i1 %15, label %21, label %Abc_TtIsConst0.exit.thread56

21:                                               ; preds = %6
  br i1 %20, label %.lr.ph.preheader.i, label %.loopexit

.lr.ph.preheader.i:                               ; preds = %21
  %wide.trip.count.i = zext nneg i32 %19 to i64
  br label %.lr.ph.i

22:                                               ; preds = %.lr.ph.i
  %indvars.iv.next.i = add nuw nsw i64 %indvars.iv.i, 1
  %exitcond.not.i = icmp eq i64 %indvars.iv.next.i, %wide.trip.count.i
  br i1 %exitcond.not.i, label %.loopexit, label %.lr.ph.i, !llvm.loop !41

.lr.ph.i:                                         ; preds = %22, %.lr.ph.preheader.i
  %indvars.iv.i = phi i64 [ 0, %.lr.ph.preheader.i ], [ %indvars.iv.next.i, %22 ]
  %23 = getelementptr inbounds nuw i64, ptr %0, i64 %indvars.iv.i
  %24 = load i64, ptr %23, align 8, !tbaa !29
  %.not.i = icmp eq i64 %24, 0
  br i1 %.not.i, label %22, label %Abc_TtIsConst1.exit

.loopexit:                                        ; preds = %22, %21
  %.not41 = icmp eq ptr %4, null
  br i1 %.not41, label %._crit_edge, label %._crit_edge.sink.split

Abc_TtIsConst0.exit.thread56:                     ; preds = %6
  br i1 %20, label %.lr.ph.preheader.i43, label %.loopexit60

.lr.ph.preheader.i43:                             ; preds = %Abc_TtIsConst0.exit.thread56
  %wide.trip.count.i44 = zext nneg i32 %19 to i64
  br label %.lr.ph.i45

25:                                               ; preds = %.lr.ph.i45
  %indvars.iv.next.i48 = add nuw nsw i64 %indvars.iv.i46, 1
  %exitcond.not.i49 = icmp eq i64 %indvars.iv.next.i48, %wide.trip.count.i44
  br i1 %exitcond.not.i49, label %.loopexit60, label %.lr.ph.i45, !llvm.loop !42

.lr.ph.i45:                                       ; preds = %25, %.lr.ph.preheader.i43
  %indvars.iv.i46 = phi i64 [ 0, %.lr.ph.preheader.i43 ], [ %indvars.iv.next.i48, %25 ]
  %26 = getelementptr inbounds nuw i64, ptr %0, i64 %indvars.iv.i46
  %27 = load i64, ptr %26, align 8, !tbaa !29
  %.not.i47 = icmp eq i64 %27, -1
  br i1 %.not.i47, label %25, label %Abc_TtIsConst1.exit

.loopexit60:                                      ; preds = %25, %Abc_TtIsConst0.exit.thread56
  %.not40 = icmp eq ptr %4, null
  br i1 %.not40, label %._crit_edge, label %._crit_edge.sink.split

Abc_TtIsConst1.exit:                              ; preds = %.lr.ph.i45, %.lr.ph.i
  %28 = call i32 @Dau_DsdDecomposeInt(ptr noundef nonnull %8, ptr noundef nonnull %0, i32 noundef %1)
  %29 = getelementptr inbounds nuw i8, ptr %8, i64 1320
  call void @llvm.lifetime.start.p0(i64 48, ptr nonnull %7) #29
  %30 = load i8, ptr %29, align 8, !tbaa !3
  %.not25.i = icmp eq i8 %30, 0
  br i1 %.not25.i, label %Dau_DsdComputeMatches.exit, label %.lr.ph.i50

.lr.ph.i50:                                       ; preds = %Abc_TtIsConst1.exit, %46
  %31 = phi i8 [ %48, %46 ], [ %30, %Abc_TtIsConst1.exit ]
  %indvars.iv.i51 = phi i64 [ %indvars.iv.next.i52, %46 ], [ 0, %Abc_TtIsConst1.exit ]
  %.027.i = phi i32 [ %.1.i, %46 ], [ 0, %Abc_TtIsConst1.exit ]
  %32 = getelementptr inbounds nuw [2000 x i32], ptr @Dau_DsdComputeMatches.pMatches, i64 0, i64 %indvars.iv.i51
  store i32 0, ptr %32, align 4, !tbaa !6
  switch i8 %31, label %46 [
    i8 40, label %33
    i8 91, label %33
    i8 60, label %33
    i8 123, label %33
    i8 41, label %38
    i8 93, label %38
    i8 62, label %38
    i8 125, label %38
  ]

33:                                               ; preds = %.lr.ph.i50, %.lr.ph.i50, %.lr.ph.i50, %.lr.ph.i50
  %34 = add nsw i32 %.027.i, 1
  %35 = sext i32 %.027.i to i64
  %36 = getelementptr inbounds [12 x i32], ptr %7, i64 0, i64 %35
  %37 = trunc nuw nsw i64 %indvars.iv.i51 to i32
  store i32 %37, ptr %36, align 4, !tbaa !6
  br label %46

38:                                               ; preds = %.lr.ph.i50, %.lr.ph.i50, %.lr.ph.i50, %.lr.ph.i50
  %39 = add nsw i32 %.027.i, -1
  %40 = sext i32 %39 to i64
  %41 = getelementptr inbounds [12 x i32], ptr %7, i64 0, i64 %40
  %42 = load i32, ptr %41, align 4, !tbaa !6
  %43 = sext i32 %42 to i64
  %44 = getelementptr inbounds [2000 x i32], ptr @Dau_DsdComputeMatches.pMatches, i64 0, i64 %43
  %45 = trunc nuw nsw i64 %indvars.iv.i51 to i32
  store i32 %45, ptr %44, align 4, !tbaa !6
  br label %46

46:                                               ; preds = %38, %33, %.lr.ph.i50
  %.1.i = phi i32 [ %34, %33 ], [ %39, %38 ], [ %.027.i, %.lr.ph.i50 ]
  %indvars.iv.next.i52 = add nuw nsw i64 %indvars.iv.i51, 1
  %47 = getelementptr inbounds nuw i8, ptr %29, i64 %indvars.iv.next.i52
  %48 = load i8, ptr %47, align 1, !tbaa !3
  %.not.i53 = icmp eq i8 %48, 0
  br i1 %.not.i53, label %Dau_DsdComputeMatches.exit, label %.lr.ph.i50, !llvm.loop !8

Dau_DsdComputeMatches.exit:                       ; preds = %46, %Abc_TtIsConst1.exit
  call void @llvm.lifetime.end.p0(i64 48, ptr nonnull %7) #29
  call void @Dau_DsdRemoveBraces(ptr noundef nonnull %29, ptr noundef nonnull @Dau_DsdComputeMatches.pMatches) #29
  %.not37 = icmp eq ptr %4, null
  br i1 %.not37, label %51, label %49

49:                                               ; preds = %Dau_DsdComputeMatches.exit
  %50 = call ptr @strcpy(ptr noundef nonnull dereferenceable(1) %4, ptr noundef nonnull dereferenceable(1) %29) #29
  br label %51

51:                                               ; preds = %49, %Dau_DsdComputeMatches.exit
  %52 = icmp eq i32 %2, 0
  %53 = icmp ne i32 %28, 2
  %or.cond.not = select i1 %52, i1 true, i1 %53
  %.pre = load i32, ptr %12, align 4
  %spec.select = select i1 %or.cond.not, i32 %.pre, i32 -1
  br label %._crit_edge

._crit_edge.sink.split:                           ; preds = %.loopexit60, %.loopexit
  %.sink = phi i8 [ 48, %.loopexit ], [ 49, %.loopexit60 ]
  store i8 %.sink, ptr %4, align 1, !tbaa !3
  %54 = getelementptr inbounds nuw i8, ptr %4, i64 1
  store i8 0, ptr %54, align 1, !tbaa !3
  br label %._crit_edge

._crit_edge:                                      ; preds = %51, %._crit_edge.sink.split, %.loopexit, %.loopexit60
  %.1 = phi i32 [ 0, %.loopexit60 ], [ 0, %.loopexit ], [ %spec.select, %51 ], [ 0, %._crit_edge.sink.split ]
  call void @llvm.lifetime.end.p0(i64 3320, ptr nonnull %8) #29
  ret i32 %.1
}